target datalayout = "e-m:e-p270:32:32-p271:32:32-p272:64:64-i64:64-i128:128-f80:128-n8:16:32:64-S128"
target triple = "x86_64-pc-linux-gnu"

%struct.AVFormatContext = type { ptr, ptr, ptr, ptr, ptr, i32, i32, ptr, i32, ptr, i32, ptr, ptr, i64, i64, i64, i32, i32, i32, i64, i64, ptr, i32, i32, ptr, i32, i32, i32, i32, ptr, i64, i32, i32, %struct.AVIOInterruptCB, i32, i32, i32, i32, i64, i32, i32, i32, i32, i32, i32, i32, i32, i32, i32, i32, i32, i64, i32, i32, i32, i32, i32, ptr, ptr, ptr, ptr, i32, ptr, ptr, ptr, ptr, i32, ptr, ptr, i64, ptr, ptr, ptr, i64 }
%struct.AVIOInterruptCB = type { ptr, ptr }
%struct.AVRational = type { i32, i32 }
%struct.APNGMuxContext = type { ptr, i32, %struct.AVRational, i64, i32, ptr, %struct.AVRational, i32, ptr, i32 }
%struct.AVIOContext = type { ptr, ptr, i32, ptr, ptr, ptr, ptr, ptr, ptr, i64, i32, i32, i32, i32, i32, i64, ptr, ptr, ptr, ptr, i32, i32, ptr, ptr, ptr, i32, ptr, i64, i64 }

; Function Attrs: alwaysinline nounwind willreturn memory(none) uwtable
define internal i32 @av_bswap32(i32 noundef %0) #5 {
  %2 = alloca i32, align 4
  store i32 %0, ptr %2, align 4, !tbaa !52
  %3 = load i32, ptr %2, align 4, !tbaa !52
  %4 = shl i32 %3, 8
  %5 = and i32 %4, 65280
  %6 = load i32, ptr %2, align 4, !tbaa !52
  %7 = lshr i32 %6, 8
  %8 = and i32 %7, 255
  %9 = or i32 %5, %8
  %10 = shl i32 %9, 16
  %11 = load i32, ptr %2, align 4, !tbaa !52
  %12 = lshr i32 %11, 16
  %13 = shl i32 %12, 8
  %14 = and i32 %13, 65280
  %15 = load i32, ptr %2, align 4, !tbaa !52
  %16 = lshr i32 %15, 16
  %17 = lshr i32 %16, 8
  %18 = and i32 %17, 255
  %19 = or i32 %14, %18
  %20 = or i32 %10, %19
  ret i32 %20
}

; Function Attrs: nounwind uwtable
define internal i32 @apng_write_trailer(ptr noundef %0) #0 {
  %2 = alloca i32, align 4
  %3 = alloca ptr, align 8
  %4 = alloca ptr, align 8
  %5 = alloca ptr, align 8
  %6 = alloca [8 x i8], align 1
  %7 = alloca i32, align 4
  %8 = alloca i32, align 4
  store ptr %0, ptr %3, align 8, !tbaa !4
  call void @llvm.lifetime.start.p0(i64 8, ptr %4) #8
  %9 = load ptr, ptr %3, align 8, !tbaa !4
  %10 = getelementptr inbounds nuw %struct.AVFormatContext, ptr %9, i32 0, i32 3
  %11 = load ptr, ptr %10, align 8, !tbaa !9
  store ptr %11, ptr %4, align 8, !tbaa !26
  call void @llvm.lifetime.start.p0(i64 8, ptr %5) #8
  %12 = load ptr, ptr %3, align 8, !tbaa !4
  %13 = getelementptr inbounds nuw %struct.AVFormatContext, ptr %12, i32 0, i32 4
  %14 = load ptr, ptr %13, align 8, !tbaa !43
  store ptr %14, ptr %5, align 8, !tbaa !53
  call void @llvm.lifetime.start.p0(i64 8, ptr %6) #8
  call void @llvm.lifetime.start.p0(i64 4, ptr %7) #8
  %15 = load ptr, ptr %4, align 8, !tbaa !26
  %16 = getelementptr inbounds nuw %struct.APNGMuxContext, ptr %15, i32 0, i32 5
  %17 = load ptr, ptr %16, align 8, !tbaa !51
  %18 = icmp ne ptr %17, null
  br i1 %18, label %19, label %27

19:                                               ; preds = %1
  %20 = load ptr, ptr %3, align 8, !tbaa !4
  %21 = call i32 @flush_packet(ptr noundef %20, ptr noundef null)
  store i32 %21, ptr %7, align 4, !tbaa !52
  %22 = load i32, ptr %7, align 4, !tbaa !52
  %23 = icmp slt i32 %22, 0
  br i1 %23, label %24, label %26

24:                                               ; preds = %19
  %25 = load i32, ptr %7, align 4, !tbaa !52
  store i32 %25, ptr %2, align 4
  store i32 1, ptr %8, align 4
  br label %59

26:                                               ; preds = %19
  br label %27

27:                                               ; preds = %26, %1
  %28 = load ptr, ptr %5, align 8, !tbaa !53
  call void @apng_write_chunk(ptr noundef %28, i32 noundef 1229278788, ptr noundef null, i64 noundef 0)
  %29 = load ptr, ptr %4, align 8, !tbaa !26
  %30 = getelementptr inbounds nuw %struct.APNGMuxContext, ptr %29, i32 0, i32 3
  %31 = load i64, ptr %30, align 8, !tbaa !54
  %32 = icmp ne i64 %31, 0
  br i1 %32, label %33, label %58

33:                                               ; preds = %27
  %34 = load ptr, ptr %5, align 8, !tbaa !53
  %35 = getelementptr inbounds nuw %struct.AVIOContext, ptr %34, i32 0, i32 20
  %36 = load i32, ptr %35, align 8, !tbaa !55
  %37 = and i32 %36, 1
  %38 = icmp ne i32 %37, 0
  br i1 %38, label %39, label %58

39:                                               ; preds = %33
  %40 = load ptr, ptr %5, align 8, !tbaa !53
  %41 = load ptr, ptr %4, align 8, !tbaa !26
  %42 = getelementptr inbounds nuw %struct.APNGMuxContext, ptr %41, i32 0, i32 3
  %43 = load i64, ptr %42, align 8, !tbaa !54
  %44 = call i64 @avio_seek(ptr noundef %40, i64 noundef %43, i32 noundef 0)
  %45 = load ptr, ptr %4, align 8, !tbaa !26
  %46 = getelementptr inbounds nuw %struct.APNGMuxContext, ptr %45, i32 0, i32 4
  %47 = load i32, ptr %46, align 8, !tbaa !57
  %48 = call i32 @av_bswap32(i32 noundef %47) #9
  %49 = getelementptr inbounds [8 x i8], ptr %6, i64 0, i64 0
  store i32 %48, ptr %49, align 1, !tbaa !58
  %50 = load ptr, ptr %4, align 8, !tbaa !26
  %51 = getelementptr inbounds nuw %struct.APNGMuxContext, ptr %50, i32 0, i32 1
  %52 = load i32, ptr %51, align 8, !tbaa !59
  %53 = call i32 @av_bswap32(i32 noundef %52) #9
  %54 = getelementptr inbounds [8 x i8], ptr %6, i64 0, i64 0
  %55 = getelementptr inbounds i8, ptr %54, i64 4
  store i32 %53, ptr %55, align 1, !tbaa !58
  %56 = load ptr, ptr %5, align 8, !tbaa !53
  %57 = getelementptr inbounds [8 x i8], ptr %6, i64 0, i64 0
  call void @apng_write_chunk(ptr noundef %56, i32 noundef 1633899596, ptr noundef %57, i64 noundef 8)
  br label %58

58:                                               ; preds = %39, %33, %27
  store i32 0, ptr %2, align 4
  store i32 1, ptr %8, align 4
  br label %59

59:                                               ; preds = %58, %24
  call void @llvm.lifetime.end.p0(i64 4, ptr %7) #8
  call void @llvm.lifetime.end.p0(i64 8, ptr %6) #8
  call void @llvm.lifetime.end.p0(i64 8, ptr %5) #8
  call void @llvm.lifetime.end.p0(i64 8, ptr %4) #8
  %60 = load i32, ptr %2, align 4
  ret i32 %60
}