; Function Attrs: nounwind uwtable
define internal range(i32 -1094995529, 1) i32 @apng_write_trailer(ptr noundef %0) #0 {
  %2 = alloca [8 x i8], align 4
  %3 = getelementptr inbounds nuw i8, ptr %0, i64 24
  %4 = load ptr, ptr %3, align 8, !tbaa !4
  %5 = getelementptr inbounds nuw i8, ptr %0, i64 32
  %6 = load ptr, ptr %5, align 8, !tbaa !38
  call void @llvm.lifetime.start.p0(i64 8, ptr nonnull %2) #7
  %7 = getelementptr inbounds nuw i8, ptr %4, i64 40
  %8 = load ptr, ptr %7, align 8, !tbaa !45
  %.not = icmp eq ptr %8, null
  br i1 %.not, label %12, label %9

9:                                                ; preds = %1
  %10 = tail call fastcc i32 @flush_packet(ptr noundef nonnull %0, ptr noundef null)
  %11 = icmp slt i32 %10, 0
  br i1 %11, label %28, label %12

12:                                               ; preds = %9, %1
  tail call fastcc void @apng_write_chunk(ptr noundef %6, i32 noundef 1229278788, ptr noundef null, i64 noundef 0)
  %13 = getelementptr inbounds nuw i8, ptr %4, i64 24
  %14 = load i64, ptr %13, align 8, !tbaa !46
  %.not16 = icmp eq i64 %14, 0
  br i1 %.not16, label %28, label %15

15:                                               ; preds = %12
  %16 = getelementptr inbounds nuw i8, ptr %6, i64 144
  %17 = load i32, ptr %16, align 8, !tbaa !47
  %18 = and i32 %17, 1
  %.not17 = icmp eq i32 %18, 0
  br i1 %.not17, label %28, label %19

19:                                               ; preds = %15
  %20 = tail call i64 @avio_seek(ptr noundef nonnull %6, i64 noundef %14, i32 noundef 0) #7
  %21 = getelementptr inbounds nuw i8, ptr %4, i64 32
  %22 = load i32, ptr %21, align 8, !tbaa !49
  %23 = tail call i32 @llvm.bswap.i32(i32 %22)
  store i32 %23, ptr %2, align 4, !tbaa !50
  %24 = getelementptr inbounds nuw i8, ptr %4, i64 8
  %25 = load i32, ptr %24, align 8, !tbaa !51
  %26 = tail call i32 @llvm.bswap.i32(i32 %25)
  %27 = getelementptr inbounds nuw i8, ptr %2, i64 4
  store i32 %26, ptr %27, align 4, !tbaa !50
  call fastcc void @apng_write_chunk(ptr noundef nonnull %6, i32 noundef 1633899596, ptr noundef nonnull %2, i64 noundef 8)
  br label %28

28:                                               ; preds = %12, %15, %19, %9
  %.0 = phi i32 [ %10, %9 ], [ 0, %19 ], [ 0, %15 ], [ 0, %12 ]
  call void @llvm.lifetime.end.p0(i64 8, ptr nonnull %2) #7
  ret i32 %.0
}